target datalayout = "e-m:e-p270:32:32-p271:32:32-p272:64:64-i64:64-i128:128-f80:128-n8:16:32:64-S128"
target triple = "x86_64-pc-linux-gnu"

@.str.10 = private unnamed_addr constant [13 x i8] c"out of range\00", align 1
@.str.11 = private unnamed_addr constant [22 x i8] c"string slice too long\00", align 1
@.str.12 = private unnamed_addr constant [19 x i8] c"invalid UTF-8 code\00", align 1
@_ZZL11utf8_decodePKcPiE6limits = internal constant [4 x i32] [i32 255, i32 127, i32 2047, i32 65535], align 16

; Function Attrs: mustprogress nounwind uwtable
define internal noundef ptr @_ZL11utf8_decodePKcPi(ptr noundef %0, ptr noundef %1) #3 {
  %3 = alloca ptr, align 8
  %4 = alloca ptr, align 8
  %5 = alloca ptr, align 8
  %6 = alloca ptr, align 8
  %7 = alloca i32, align 4
  %8 = alloca i32, align 4
  %9 = alloca i32, align 4
  %10 = alloca i32, align 4
  %11 = alloca i32, align 4
  store ptr %0, ptr %4, align 8, !tbaa !9
  store ptr %1, ptr %5, align 8, !tbaa !25
  call void @llvm.lifetime.start.p0(i64 8, ptr %6) #5
  %12 = load ptr, ptr %4, align 8, !tbaa !9
  store ptr %12, ptr %6, align 8, !tbaa !9
  call void @llvm.lifetime.start.p0(i64 4, ptr %7) #5
  %13 = load ptr, ptr %6, align 8, !tbaa !9
  %14 = getelementptr inbounds i8, ptr %13, i64 0
  %15 = load i8, ptr %14, align 1, !tbaa !15
  %16 = zext i8 %15 to i32
  store i32 %16, ptr %7, align 4, !tbaa !11
  call void @llvm.lifetime.start.p0(i64 4, ptr %8) #5
  store i32 0, ptr %8, align 4, !tbaa !11
  %17 = load i32, ptr %7, align 4, !tbaa !11
  %18 = icmp ult i32 %17, 128
  br i1 %18, label %19, label %21

19:                                               ; preds = %2
  %20 = load i32, ptr %7, align 4, !tbaa !11
  store i32 %20, ptr %8, align 4, !tbaa !11
  br label %83

21:                                               ; preds = %2
  call void @llvm.lifetime.start.p0(i64 4, ptr %9) #5
  store i32 0, ptr %9, align 4, !tbaa !11
  br label %22

22:                                               ; preds = %48, %21
  %23 = load i32, ptr %7, align 4, !tbaa !11
  %24 = and i32 %23, 64
  %25 = icmp ne i32 %24, 0
  br i1 %25, label %26, label %49

26:                                               ; preds = %22
  call void @llvm.lifetime.start.p0(i64 4, ptr %10) #5
  %27 = load ptr, ptr %6, align 8, !tbaa !9
  %28 = load i32, ptr %9, align 4, !tbaa !11
  %29 = add nsw i32 %28, 1
  store i32 %29, ptr %9, align 4, !tbaa !11
  %30 = sext i32 %29 to i64
  %31 = getelementptr inbounds i8, ptr %27, i64 %30
  %32 = load i8, ptr %31, align 1, !tbaa !15
  %33 = zext i8 %32 to i32
  store i32 %33, ptr %10, align 4, !tbaa !11
  %34 = load i32, ptr %10, align 4, !tbaa !11
  %35 = and i32 %34, 192
  %36 = icmp ne i32 %35, 128
  br i1 %36, label %37, label %38

37:                                               ; preds = %26
  store ptr null, ptr %3, align 8
  store i32 1, ptr %11, align 4
  br label %46

38:                                               ; preds = %26
  %39 = load i32, ptr %8, align 4, !tbaa !11
  %40 = shl i32 %39, 6
  %41 = load i32, ptr %10, align 4, !tbaa !11
  %42 = and i32 %41, 63
  %43 = or i32 %40, %42
  store i32 %43, ptr %8, align 4, !tbaa !11
  %44 = load i32, ptr %7, align 4, !tbaa !11
  %45 = shl i32 %44, 1
  store i32 %45, ptr %7, align 4, !tbaa !11
  store i32 0, ptr %11, align 4
  br label %46

46:                                               ; preds = %38, %37
  call void @llvm.lifetime.end.p0(i64 4, ptr %10) #5
  %47 = load i32, ptr %11, align 4
  switch i32 %47, label %80 [
    i32 0, label %48
  ]

48:                                               ; preds = %46
  br label %22, !llvm.loop !27

49:                                               ; preds = %22
  %50 = load i32, ptr %7, align 4, !tbaa !11
  %51 = and i32 %50, 127
  %52 = load i32, ptr %9, align 4, !tbaa !11
  %53 = mul nsw i32 %52, 5
  %54 = shl i32 %51, %53
  %55 = load i32, ptr %8, align 4, !tbaa !11
  %56 = or i32 %55, %54
  store i32 %56, ptr %8, align 4, !tbaa !11
  %57 = load i32, ptr %9, align 4, !tbaa !11
  %58 = icmp sgt i32 %57, 3
  br i1 %58, label %69, label %59

59:                                               ; preds = %49
  %60 = load i32, ptr %8, align 4, !tbaa !11
  %61 = icmp ugt i32 %60, 1114111
  br i1 %61, label %69, label %62

62:                                               ; preds = %59
  %63 = load i32, ptr %8, align 4, !tbaa !11
  %64 = load i32, ptr %9, align 4, !tbaa !11
  %65 = sext i32 %64 to i64
  %66 = getelementptr inbounds [4 x i32], ptr @_ZZL11utf8_decodePKcPiE6limits, i64 0, i64 %65
  %67 = load i32, ptr %66, align 4, !tbaa !11
  %68 = icmp ule i32 %63, %67
  br i1 %68, label %69, label %70

69:                                               ; preds = %62, %59, %49
  store ptr null, ptr %3, align 8
  store i32 1, ptr %11, align 4
  br label %80

70:                                               ; preds = %62
  %71 = load i32, ptr %8, align 4, !tbaa !11
  %72 = sub i32 %71, 55296
  %73 = icmp ult i32 %72, 2048
  br i1 %73, label %74, label %75

74:                                               ; preds = %70
  store ptr null, ptr %3, align 8
  store i32 1, ptr %11, align 4
  br label %80

75:                                               ; preds = %70
  %76 = load i32, ptr %9, align 4, !tbaa !11
  %77 = load ptr, ptr %6, align 8, !tbaa !9
  %78 = sext i32 %76 to i64
  %79 = getelementptr inbounds i8, ptr %77, i64 %78
  store ptr %79, ptr %6, align 8, !tbaa !9
  store i32 0, ptr %11, align 4
  br label %80

80:                                               ; preds = %75, %74, %69, %46
  call void @llvm.lifetime.end.p0(i64 4, ptr %9) #5
  %81 = load i32, ptr %11, align 4
  switch i32 %81, label %92 [
    i32 0, label %82
  ]

82:                                               ; preds = %80
  br label %83

83:                                               ; preds = %82, %19
  %84 = load ptr, ptr %5, align 8, !tbaa !25
  %85 = icmp ne ptr %84, null
  br i1 %85, label %86, label %89

86:                                               ; preds = %83
  %87 = load i32, ptr %8, align 4, !tbaa !11
  %88 = load ptr, ptr %5, align 8, !tbaa !25
  store i32 %87, ptr %88, align 4, !tbaa !11
  br label %89

89:                                               ; preds = %86, %83
  %90 = load ptr, ptr %6, align 8, !tbaa !9
  %91 = getelementptr inbounds i8, ptr %90, i64 1
  store ptr %91, ptr %3, align 8
  store i32 1, ptr %11, align 4
  br label %92

92:                                               ; preds = %89, %80
  call void @llvm.lifetime.end.p0(i64 4, ptr %8) #5
  call void @llvm.lifetime.end.p0(i64 4, ptr %7) #5
  call void @llvm.lifetime.end.p0(i64 8, ptr %6) #5
  %93 = load ptr, ptr %3, align 8
  ret ptr %93
}

; Function Attrs: mustprogress nounwind uwtable
define internal noundef i32 @_ZL10u_posrelatim(i32 noundef %0, i64 noundef %1) #3 {
  %3 = alloca i32, align 4
  %4 = alloca i32, align 4
  %5 = alloca i64, align 8
  store i32 %0, ptr %4, align 4, !tbaa !11
  store i64 %1, ptr %5, align 8, !tbaa !13
  %6 = load i32, ptr %4, align 4, !tbaa !11
  %7 = icmp sge i32 %6, 0
  br i1 %7, label %8, label %10

8:                                                ; preds = %2
  %9 = load i32, ptr %4, align 4, !tbaa !11
  store i32 %9, ptr %3, align 4
  br label %23

10:                                               ; preds = %2
  %11 = load i32, ptr %4, align 4, !tbaa !11
  %12 = sext i32 %11 to i64
  %13 = sub i64 0, %12
  %14 = load i64, ptr %5, align 8, !tbaa !13
  %15 = icmp ugt i64 %13, %14
  br i1 %15, label %16, label %17

16:                                               ; preds = %10
  store i32 0, ptr %3, align 4
  br label %23

17:                                               ; preds = %10
  %18 = load i64, ptr %5, align 8, !tbaa !13
  %19 = trunc i64 %18 to i32
  %20 = load i32, ptr %4, align 4, !tbaa !11
  %21 = add nsw i32 %19, %20
  %22 = add nsw i32 %21, 1
  store i32 %22, ptr %3, align 4
  br label %23

23:                                               ; preds = %17, %16, %8
  %24 = load i32, ptr %3, align 4
  ret i32 %24
}

; Function Attrs: mustprogress uwtable
define internal noundef i32 @_ZL9codepointP9lua_State(ptr noundef %0) #0 {
  %2 = alloca i32, align 4
  %3 = alloca ptr, align 8
  %4 = alloca i64, align 8
  %5 = alloca ptr, align 8
  %6 = alloca i32, align 4
  %7 = alloca i32, align 4
  %8 = alloca i32, align 4
  %9 = alloca ptr, align 8
  %10 = alloca i32, align 4
  %11 = alloca i32, align 4
  store ptr %0, ptr %3, align 8, !tbaa !4
  call void @llvm.lifetime.start.p0(i64 8, ptr %4) #5
  call void @llvm.lifetime.start.p0(i64 8, ptr %5) #5
  %12 = load ptr, ptr %3, align 8, !tbaa !4
  %13 = call noundef ptr @_Z17luaL_checklstringP9lua_StateiPm(ptr noundef %12, i32 noundef 1, ptr noundef %4)
  store ptr %13, ptr %5, align 8, !tbaa !9
  call void @llvm.lifetime.start.p0(i64 4, ptr %6) #5
  %14 = load ptr, ptr %3, align 8, !tbaa !4
  %15 = call noundef i32 @_Z15luaL_optintegerP9lua_Stateii(ptr noundef %14, i32 noundef 2, i32 noundef 1)
  %16 = load i64, ptr %4, align 8, !tbaa !13
  %17 = call noundef i32 @_ZL10u_posrelatim(i32 noundef %15, i64 noundef %16)
  store i32 %17, ptr %6, align 4, !tbaa !11
  call void @llvm.lifetime.start.p0(i64 4, ptr %7) #5
  %18 = load ptr, ptr %3, align 8, !tbaa !4
  %19 = load i32, ptr %6, align 4, !tbaa !11
  %20 = call noundef i32 @_Z15luaL_optintegerP9lua_Stateii(ptr noundef %18, i32 noundef 3, i32 noundef %19)
  %21 = load i64, ptr %4, align 8, !tbaa !13
  %22 = call noundef i32 @_ZL10u_posrelatim(i32 noundef %20, i64 noundef %21)
  store i32 %22, ptr %7, align 4, !tbaa !11
  call void @llvm.lifetime.start.p0(i64 4, ptr %8) #5
  call void @llvm.lifetime.start.p0(i64 8, ptr %9) #5
  %23 = load i32, ptr %6, align 4, !tbaa !11
  %24 = icmp sge i32 %23, 1
  br i1 %24, label %25, label %26

25:                                               ; preds = %1
  br label %29

26:                                               ; preds = %1
  %27 = load ptr, ptr %3, align 8, !tbaa !4
  call void @_Z14luaL_argerrorLP9lua_StateiPKc(ptr noundef %27, i32 noundef 2, ptr noundef @.str.10) #6
  unreachable

28:                                               ; No predecessors!
  br label %29

29:                                               ; preds = %28, %25
  %30 = load i32, ptr %7, align 4, !tbaa !11
  %31 = load i64, ptr %4, align 8, !tbaa !13
  %32 = trunc i64 %31 to i32
  %33 = icmp sle i32 %30, %32
  br i1 %33, label %34, label %35

34:                                               ; preds = %29
  br label %38

35:                                               ; preds = %29
  %36 = load ptr, ptr %3, align 8, !tbaa !4
  call void @_Z14luaL_argerrorLP9lua_StateiPKc(ptr noundef %36, i32 noundef 3, ptr noundef @.str.10) #6
  unreachable

37:                                               ; No predecessors!
  br label %38

38:                                               ; preds = %37, %34
  %39 = load i32, ptr %6, align 4, !tbaa !11
  %40 = load i32, ptr %7, align 4, !tbaa !11
  %41 = icmp sgt i32 %39, %40
  br i1 %41, label %42, label %43

42:                                               ; preds = %38
  store i32 0, ptr %2, align 4
  store i32 1, ptr %10, align 4
  br label %84

43:                                               ; preds = %38
  %44 = load i32, ptr %7, align 4, !tbaa !11
  %45 = load i32, ptr %6, align 4, !tbaa !11
  %46 = sub nsw i32 %44, %45
  %47 = icmp sge i32 %46, 2147483647
  br i1 %47, label %48, label %50

48:                                               ; preds = %43
  %49 = load ptr, ptr %3, align 8, !tbaa !4
  call void (ptr, ptr, ...) @_Z11luaL_errorLP9lua_StatePKcz(ptr noundef %49, ptr noundef @.str.11) #6
  unreachable

50:                                               ; preds = %43
  %51 = load i32, ptr %7, align 4, !tbaa !11
  %52 = load i32, ptr %6, align 4, !tbaa !11
  %53 = sub nsw i32 %51, %52
  %54 = add nsw i32 %53, 1
  store i32 %54, ptr %8, align 4, !tbaa !11
  %55 = load ptr, ptr %3, align 8, !tbaa !4
  %56 = load i32, ptr %8, align 4, !tbaa !11
  call void @_Z15luaL_checkstackP9lua_StateiPKc(ptr noundef %55, i32 noundef %56, ptr noundef @.str.11)
  store i32 0, ptr %8, align 4, !tbaa !11
  %57 = load ptr, ptr %5, align 8, !tbaa !9
  %58 = load i32, ptr %7, align 4, !tbaa !11
  %59 = sext i32 %58 to i64
  %60 = getelementptr inbounds i8, ptr %57, i64 %59
  store ptr %60, ptr %9, align 8, !tbaa !9
  %61 = load i32, ptr %6, align 4, !tbaa !11
  %62 = sub nsw i32 %61, 1
  %63 = load ptr, ptr %5, align 8, !tbaa !9
  %64 = sext i32 %62 to i64
  %65 = getelementptr inbounds i8, ptr %63, i64 %64
  store ptr %65, ptr %5, align 8, !tbaa !9
  br label %66

66:                                               ; preds = %77, %50
  %67 = load ptr, ptr %5, align 8, !tbaa !9
  %68 = load ptr, ptr %9, align 8, !tbaa !9
  %69 = icmp ult ptr %67, %68
  br i1 %69, label %70, label %82

70:                                               ; preds = %66
  call void @llvm.lifetime.start.p0(i64 4, ptr %11) #5
  %71 = load ptr, ptr %5, align 8, !tbaa !9
  %72 = call noundef ptr @_ZL11utf8_decodePKcPi(ptr noundef %71, ptr noundef %11)
  store ptr %72, ptr %5, align 8, !tbaa !9
  %73 = load ptr, ptr %5, align 8, !tbaa !9
  %74 = icmp eq ptr %73, null
  br i1 %74, label %75, label %77

75:                                               ; preds = %70
  %76 = load ptr, ptr %3, align 8, !tbaa !4
  call void (ptr, ptr, ...) @_Z11luaL_errorLP9lua_StatePKcz(ptr noundef %76, ptr noundef @.str.12) #6
  unreachable

77:                                               ; preds = %70
  %78 = load ptr, ptr %3, align 8, !tbaa !4
  %79 = load i32, ptr %11, align 4, !tbaa !11
  call void @_Z15lua_pushintegerP9lua_Statei(ptr noundef %78, i32 noundef %79)
  %80 = load i32, ptr %8, align 4, !tbaa !11
  %81 = add nsw i32 %80, 1
  store i32 %81, ptr %8, align 4, !tbaa !11
  call void @llvm.lifetime.end.p0(i64 4, ptr %11) #5
  br label %66, !llvm.loop !22

82:                                               ; preds = %66
  %83 = load i32, ptr %8, align 4, !tbaa !11
  store i32 %83, ptr %2, align 4
  store i32 1, ptr %10, align 4
  br label %84

84:                                               ; preds = %82, %42
  call void @llvm.lifetime.end.p0(i64 8, ptr %9) #5
  call void @llvm.lifetime.end.p0(i64 4, ptr %8) #5
  call void @llvm.lifetime.end.p0(i64 4, ptr %7) #5
  call void @llvm.lifetime.end.p0(i64 4, ptr %6) #5
  call void @llvm.lifetime.end.p0(i64 8, ptr %5) #5
  call void @llvm.lifetime.end.p0(i64 8, ptr %4) #5
  %85 = load i32, ptr %2, align 4
  ret i32 %85
}