; Function Attrs: mustprogress uwtable
define internal noundef i32 @_ZL9codepointP9lua_State(ptr noundef %0) #0 {
  %2 = alloca i64, align 8
  call void @llvm.lifetime.start.p0(i64 8, ptr nonnull %2) #4
  %3 = call noundef ptr @_Z17luaL_checklstringP9lua_StateiPm(ptr noundef %0, i32 noundef 1, ptr noundef nonnull %2)
  %4 = call noundef i32 @_Z15luaL_optintegerP9lua_Stateii(ptr noundef %0, i32 noundef 2, i32 noundef 1)
  %5 = load i64, ptr %2, align 8, !tbaa !4
  %6 = icmp sgt i32 %4, -1
  br i1 %6, label %_ZL10u_posrelatim.exit, label %7

7:                                                ; preds = %1
  %8 = sext i32 %4 to i64
  %9 = sub nsw i64 0, %8
  %10 = icmp ult i64 %5, %9
  br i1 %10, label %_ZL10u_posrelatim.exit, label %11

11:                                               ; preds = %7
  %12 = trunc i64 %5 to i32
  %13 = add nsw i32 %4, 1
  %14 = add i32 %13, %12
  br label %_ZL10u_posrelatim.exit

_ZL10u_posrelatim.exit:                           ; preds = %1, %7, %11
  %.0.i = phi i32 [ %14, %11 ], [ %4, %1 ], [ 0, %7 ]
  %15 = call noundef i32 @_Z15luaL_optintegerP9lua_Stateii(ptr noundef %0, i32 noundef 3, i32 noundef %.0.i)
  %16 = load i64, ptr %2, align 8, !tbaa !4
  %17 = icmp sgt i32 %15, -1
  br i1 %17, label %_ZL10u_posrelatim.exit36, label %18

18:                                               ; preds = %_ZL10u_posrelatim.exit
  %19 = sext i32 %15 to i64
  %20 = sub nsw i64 0, %19
  %21 = icmp ult i64 %16, %20
  br i1 %21, label %_ZL10u_posrelatim.exit36, label %22

22:                                               ; preds = %18
  %23 = trunc i64 %16 to i32
  %24 = add nsw i32 %15, 1
  %25 = add i32 %24, %23
  br label %_ZL10u_posrelatim.exit36

_ZL10u_posrelatim.exit36:                         ; preds = %_ZL10u_posrelatim.exit, %18, %22
  %.0.i35 = phi i32 [ %25, %22 ], [ %15, %_ZL10u_posrelatim.exit ], [ 0, %18 ]
  %26 = icmp sgt i32 %.0.i, 0
  br i1 %26, label %28, label %27

27:                                               ; preds = %_ZL10u_posrelatim.exit36
  call void @_Z14luaL_argerrorLP9lua_StateiPKc(ptr noundef %0, i32 noundef 2, ptr noundef nonnull @.str.10) #5
  unreachable

28:                                               ; preds = %_ZL10u_posrelatim.exit36
  %29 = trunc i64 %16 to i32
  %.not = icmp sgt i32 %.0.i35, %29
  br i1 %.not, label %30, label %31

30:                                               ; preds = %28
  call void @_Z14luaL_argerrorLP9lua_StateiPKc(ptr noundef %0, i32 noundef 3, ptr noundef nonnull @.str.10) #5
  unreachable

31:                                               ; preds = %28
  %32 = icmp sgt i32 %.0.i, %.0.i35
  br i1 %32, label %.loopexit40, label %33

33:                                               ; preds = %31
  %reass.sub = sub nsw i32 %.0.i35, %.0.i
  %34 = add nsw i32 %reass.sub, 1
  call void @_Z15luaL_checkstackP9lua_StateiPKc(ptr noundef %0, i32 noundef %34, ptr noundef nonnull @.str.11)
  %35 = zext nneg i32 %.0.i35 to i64
  %36 = getelementptr inbounds nuw i8, ptr %3, i64 %35
  %37 = zext nneg i32 %.0.i to i64
  %38 = getelementptr i8, ptr %3, i64 %37
  %39 = getelementptr i8, ptr %38, i64 -1
  %40 = icmp ult ptr %39, %36
  br i1 %40, label %.lr.ph, label %.loopexit40

.lr.ph:                                           ; preds = %33, %67
  %.02948 = phi i32 [ %69, %67 ], [ 0, %33 ]
  %.03047 = phi ptr [ %68, %67 ], [ %39, %33 ]
  %41 = load i8, ptr %.03047, align 1, !tbaa !8
  %42 = zext i8 %41 to i32
  %43 = icmp sgt i8 %41, -1
  br i1 %43, label %67, label %.preheader.i

.preheader.i:                                     ; preds = %.lr.ph, %45
  %indvars.iv.i = phi i64 [ %indvars.iv.next.i, %45 ], [ 0, %.lr.ph ]
  %.036.i = phi i32 [ %53, %45 ], [ %42, %.lr.ph ]
  %.133.i = phi i32 [ %52, %45 ], [ 0, %.lr.ph ]
  %44 = and i32 %.036.i, 64
  %.not.i = icmp eq i32 %44, 0
  br i1 %.not.i, label %54, label %45

45:                                               ; preds = %.preheader.i
  %indvars.iv.next.i = add nuw nsw i64 %indvars.iv.i, 1
  %46 = getelementptr inbounds nuw i8, ptr %.03047, i64 %indvars.iv.next.i
  %47 = load i8, ptr %46, align 1, !tbaa !8
  %48 = zext i8 %47 to i32
  %49 = and i32 %48, 192
  %.not45.i = icmp eq i32 %49, 128
  %50 = shl i32 %.133.i, 6
  %51 = and i32 %48, 63
  %52 = or disjoint i32 %51, %50
  %53 = shl i32 %.036.i, 1
  br i1 %.not45.i, label %.preheader.i, label %.loopexit, !llvm.loop !15

54:                                               ; preds = %.preheader.i
  %55 = trunc nuw nsw i64 %indvars.iv.i to i32
  %56 = and i32 %.036.i, 63
  %57 = mul nuw nsw i32 %55, 5
  %58 = shl i32 %56, %57
  %59 = or i32 %58, %.133.i
  %60 = icmp samesign ugt i64 %indvars.iv.i, 3
  %61 = icmp ugt i32 %59, 1114111
  %or.cond.i = select i1 %60, i1 true, i1 %61
  br i1 %or.cond.i, label %.loopexit, label %62

62:                                               ; preds = %54
  %63 = getelementptr inbounds nuw [4 x i32], ptr @_ZZL11utf8_decodePKcPiE6limits, i64 0, i64 %indvars.iv.i
  %64 = load i32, ptr %63, align 4, !tbaa !16
  %.not44.i = icmp ugt i32 %59, %64
  %65 = and i32 %59, 2095104
  %66 = icmp ne i32 %65, 55296
  %or.cond48.not.i = and i1 %66, %.not44.i
  %spec.select.idx.i = select i1 %or.cond48.not.i, i64 %indvars.iv.i, i64 0
  %spec.select.i = getelementptr inbounds nuw i8, ptr %.03047, i64 %spec.select.idx.i
  br i1 %or.cond48.not.i, label %67, label %.loopexit

.loopexit:                                        ; preds = %62, %54, %45
  call void (ptr, ptr, ...) @_Z11luaL_errorLP9lua_StatePKcz(ptr noundef %0, ptr noundef nonnull @.str.12) #5
  unreachable

67:                                               ; preds = %62, %.lr.ph
  %.038.i = phi ptr [ %spec.select.i, %62 ], [ %.03047, %.lr.ph ]
  %.032.i = phi i32 [ %59, %62 ], [ %42, %.lr.ph ]
  %68 = getelementptr inbounds nuw i8, ptr %.038.i, i64 1
  call void @_Z15lua_pushintegerP9lua_Statei(ptr noundef %0, i32 noundef %.032.i)
  %69 = add nuw nsw i32 %.02948, 1
  %70 = icmp ult ptr %68, %36
  br i1 %70, label %.lr.ph, label %.loopexit40, !llvm.loop !18

.loopexit40:                                      ; preds = %67, %33, %31
  %.0 = phi i32 [ 0, %31 ], [ 0, %33 ], [ %69, %67 ]
  call void @llvm.lifetime.end.p0(i64 8, ptr nonnull %2) #4
  ret i32 %.0
}